target datalayout = "e-m:e-p270:32:32-p271:32:32-p272:64:64-i64:64-i128:128-f80:128-n8:16:32:64-S128"
target triple = "x86_64-pc-linux-gnu"

%struct.OSSL_TIME = type { i64 }
%struct.ssl_st = type { i32, ptr, ptr, ptr, %struct.CRYPTO_REF_COUNT, ptr, %struct.crypto_ex_data_st }
%struct.CRYPTO_REF_COUNT = type { i32 }
%struct.crypto_ex_data_st = type { ptr, ptr }
%struct.ssl_connection_st = type { %struct.ssl_st, ptr, i32, ptr, ptr, ptr, i32, ptr, i32, i32, i32, i32, %struct.OSSL_TIME, %struct.OSSL_TIME, %struct.ossl_statem_st, i32, ptr, ptr, i64, i64, i64, %struct.ossl_quic_tls_callbacks_st, ptr, ptr, %struct.anon, ptr, ptr, ptr, i32, ptr, %struct.ssl_dane_st, ptr, ptr, ptr, ptr, i32, [64 x i8], [64 x i8], [64 x i8], [64 x i8], [64 x i8], [64 x i8], [64 x i8], [64 x i8], [64 x i8], [64 x i8], [64 x i8], [64 x i8], ptr, [64 x i8], i64, i32, i64, [32 x i8], ptr, ptr, ptr, i64, ptr, [32 x i8], i64, i32, ptr, ptr, i32, i32, ptr, ptr, ptr, ptr, ptr, i64, ptr, ptr, i64, i32, i32, i32, i64, i32, i32, i64, i64, i64, %struct.anon.1, ptr, i32, ptr, ptr, ptr, i32, ptr, ptr, ptr, i32, i32, i32, i32, ptr, i64, i32, ptr, %struct.srp_ctx_st, ptr, %struct.record_layer_st, ptr, ptr, ptr, ptr, i64, i32, i32, i32, i64, i64, i64, ptr, ptr, ptr, ptr, ptr, i64, ptr, i64, ptr, i64 }
%struct.ossl_statem_st = type { i32, i32, i32, i32, i32, i32, i32, i32, i32, i32, i32, i32, i32, ptr, ptr, ptr, i8 }
%struct.ossl_quic_tls_callbacks_st = type { ptr, ptr, ptr, ptr, ptr, ptr }
%struct.anon = type { i64, [32 x i8], [32 x i8], ptr, ptr, i32, i32, i32, i32, [2 x i8], i32, i32, i32, i32, %struct.anon.0, [64 x i8], i64, [64 x i8], i64, i32, i32, ptr, i64, ptr, i64, i32, i8, i8, i16, ptr, i16 }
%struct.anon.0 = type { [128 x i8], i64, [128 x i8], i64, i64, i32, ptr, ptr, [4 x ptr], [4 x i16], i64, i32, ptr, i64, ptr, i64, ptr, ptr, ptr, i32, i64, ptr, i32, ptr, i64, ptr, i64, ptr, i64, ptr, ptr, ptr, ptr, i64, i64, ptr, ptr, i32, i32, i32, i32 }
%struct.ssl_dane_st = type { ptr, ptr, ptr, ptr, ptr, i32, i32, i32, i64 }
%struct.anon.1 = type { [29 x i8], ptr, ptr, ptr, i32, ptr, i16, i32, %struct.anon.2, i32, i32, i64, ptr, i64, ptr, i64, ptr, i64, ptr, i64, ptr, i64, ptr, ptr, ptr, ptr, ptr, ptr, ptr, i64, ptr, i64, i32, i32, i32, i32, ptr, i64, i32, i8, i32, [4 x i32], i32, i8, i8, i8, i8 }
%struct.anon.2 = type { ptr, ptr, ptr, i64 }
%struct.srp_ctx_st = type { ptr, ptr, ptr, ptr, ptr, ptr, ptr, ptr, ptr, ptr, ptr, ptr, ptr, ptr, i32, i64 }
%struct.record_layer_st = type { ptr, ptr, ptr, ptr, ptr, ptr, ptr, ptr, i64, i32, i64, [4 x i8], i64, i64, i8, ptr, i32, ptr, ptr, ptr, i64, i64, i64, i64, [32 x %struct.tls_record_st] }
%struct.tls_record_st = type { ptr, i32, i8, ptr, ptr, i64, i64, i16, [8 x i8] }
%struct.ssl_ctx_st = type { ptr, ptr, ptr, ptr, ptr, ptr, ptr, i64, ptr, ptr, i32, %struct.OSSL_TIME, ptr, ptr, ptr, %struct.anon.3, %struct.CRYPTO_REF_COUNT, ptr, ptr, ptr, ptr, ptr, ptr, ptr, ptr, ptr, %struct.crypto_ex_data_st, ptr, ptr, ptr, ptr, ptr, ptr, ptr, i64, i32, i32, i32, i64, ptr, ptr, i32, ptr, ptr, i32, i64, [32 x i8], ptr, ptr, ptr, i32, ptr, ptr, ptr, i64, i64, i64, i64, ptr, ptr, ptr, ptr, ptr, %struct.anon.4, ptr, ptr, ptr, ptr, %struct.srp_ctx_st, %struct.dane_ctx_st, ptr, ptr, ptr, ptr, i32, i32, ptr, ptr, i64, i64, ptr, ptr, ptr, i64, ptr, ptr, i32, ptr, ptr, ptr, [14 x i32], [24 x ptr], [14 x ptr], [14 x i64], i64, ptr, ptr, ptr, i64, i64, ptr, i64, i64, i32, i32, i32, i32, ptr, i64, ptr, i64, i64, ptr, ptr }
%struct.anon.3 = type { i32, i32, i32, i32, i32, i32, i32, i32, i32, i32, i32 }
%struct.anon.4 = type { ptr, ptr, [16 x i8], ptr, ptr, ptr, ptr, ptr, i32, i8, i64, ptr, i64, ptr, i64, ptr, i64, ptr, ptr, i64, ptr, ptr, ptr, i64, ptr, ptr, ptr, ptr, [32 x i8] }
%struct.dane_ctx_st = type { ptr, ptr, i8, i64 }
%struct.sigalg_lookup_st = type { ptr, i16, i32, i32, i32, i32, i32, i32, i32 }

; Function Attrs: nounwind uwtable
define internal ptr @tls1_lookup_sigalg(ptr noundef %0, i16 noundef zeroext %1) #1 {
  %3 = alloca ptr, align 8
  %4 = alloca ptr, align 8
  %5 = alloca i16, align 2
  %6 = alloca i64, align 8
  %7 = alloca ptr, align 8
  %8 = alloca i32, align 4
  store ptr %0, ptr %4, align 8, !tbaa !25
  store i16 %1, ptr %5, align 2, !tbaa !100
  call void @llvm.lifetime.start.p0(i64 8, ptr %6) #8
  call void @llvm.lifetime.start.p0(i64 8, ptr %7) #8
  store i64 0, ptr %6, align 8, !tbaa !3
  %9 = load ptr, ptr %4, align 8, !tbaa !25
  %10 = getelementptr inbounds nuw %struct.ssl_connection_st, ptr %9, i32 0, i32 0
  %11 = getelementptr inbounds nuw %struct.ssl_st, ptr %10, i32 0, i32 1
  %12 = load ptr, ptr %11, align 8, !tbaa !137
  %13 = getelementptr inbounds nuw %struct.ssl_ctx_st, ptr %12, i32 0, i32 95
  %14 = load ptr, ptr %13, align 8, !tbaa !224
  store ptr %14, ptr %7, align 8, !tbaa !201
  br label %15

15:                                               ; preds = %41, %2
  %16 = load i64, ptr %6, align 8, !tbaa !3
  %17 = load ptr, ptr %4, align 8, !tbaa !25
  %18 = getelementptr inbounds nuw %struct.ssl_connection_st, ptr %17, i32 0, i32 0
  %19 = getelementptr inbounds nuw %struct.ssl_st, ptr %18, i32 0, i32 1
  %20 = load ptr, ptr %19, align 8, !tbaa !137
  %21 = getelementptr inbounds nuw %struct.ssl_ctx_st, ptr %20, i32 0, i32 94
  %22 = load i64, ptr %21, align 8, !tbaa !226
  %23 = icmp ult i64 %16, %22
  br i1 %23, label %24, label %46

24:                                               ; preds = %15
  %25 = load ptr, ptr %7, align 8, !tbaa !201
  %26 = getelementptr inbounds nuw %struct.sigalg_lookup_st, ptr %25, i32 0, i32 1
  %27 = load i16, ptr %26, align 8, !tbaa !218
  %28 = zext i16 %27 to i32
  %29 = load i16, ptr %5, align 2, !tbaa !100
  %30 = zext i16 %29 to i32
  %31 = icmp eq i32 %28, %30
  br i1 %31, label %32, label %40

32:                                               ; preds = %24
  %33 = load ptr, ptr %7, align 8, !tbaa !201
  %34 = getelementptr inbounds nuw %struct.sigalg_lookup_st, ptr %33, i32 0, i32 8
  %35 = load i32, ptr %34, align 4, !tbaa !208
  %36 = icmp ne i32 %35, 0
  br i1 %36, label %38, label %37

37:                                               ; preds = %32
  store ptr null, ptr %3, align 8
  store i32 1, ptr %8, align 4
  br label %47

38:                                               ; preds = %32
  %39 = load ptr, ptr %7, align 8, !tbaa !201
  store ptr %39, ptr %3, align 8
  store i32 1, ptr %8, align 4
  br label %47

40:                                               ; preds = %24
  br label %41

41:                                               ; preds = %40
  %42 = load ptr, ptr %7, align 8, !tbaa !201
  %43 = getelementptr inbounds nuw %struct.sigalg_lookup_st, ptr %42, i32 1
  store ptr %43, ptr %7, align 8, !tbaa !201
  %44 = load i64, ptr %6, align 8, !tbaa !3
  %45 = add i64 %44, 1
  store i64 %45, ptr %6, align 8, !tbaa !3
  br label %15, !llvm.loop !245

46:                                               ; preds = %15
  store ptr null, ptr %3, align 8
  store i32 1, ptr %8, align 4
  br label %47

47:                                               ; preds = %46, %38, %37
  call void @llvm.lifetime.end.p0(i64 8, ptr %7) #8
  call void @llvm.lifetime.end.p0(i64 8, ptr %6) #8
  %48 = load ptr, ptr %3, align 8
  ret ptr %48
}

; Function Attrs: nounwind uwtable
define internal i32 @check_cert_usable(ptr noundef %0, ptr noundef %1, ptr noundef %2, ptr noundef %3) #1 {
  %5 = alloca i32, align 4
  %6 = alloca ptr, align 8
  %7 = alloca ptr, align 8
  %8 = alloca ptr, align 8
  %9 = alloca ptr, align 8
  %10 = alloca ptr, align 8
  %11 = alloca i32, align 4
  %12 = alloca i32, align 4
  %13 = alloca i32, align 4
  %14 = alloca i64, align 8
  %15 = alloca ptr, align 8
  %16 = alloca ptr, align 8
  %17 = alloca i32, align 4
  store ptr %0, ptr %6, align 8, !tbaa !25
  store ptr %1, ptr %7, align 8, !tbaa !201
  store ptr %2, ptr %8, align 8, !tbaa !334
  store ptr %3, ptr %9, align 8, !tbaa !202
  call void @llvm.lifetime.start.p0(i64 8, ptr %10) #8
  call void @llvm.lifetime.start.p0(i64 4, ptr %11) #8
  call void @llvm.lifetime.start.p0(i64 4, ptr %12) #8
  call void @llvm.lifetime.start.p0(i64 4, ptr %13) #8
  call void @llvm.lifetime.start.p0(i64 8, ptr %14) #8
  call void @llvm.lifetime.start.p0(i64 8, ptr %15) #8
  store ptr null, ptr %15, align 8, !tbaa !172
  call void @llvm.lifetime.start.p0(i64 8, ptr %16) #8
  %18 = load ptr, ptr %6, align 8, !tbaa !25
  %19 = getelementptr inbounds nuw %struct.ssl_connection_st, ptr %18, i32 0, i32 0
  %20 = getelementptr inbounds nuw %struct.ssl_st, ptr %19, i32 0, i32 1
  %21 = load ptr, ptr %20, align 8, !tbaa !137
  store ptr %21, ptr %16, align 8, !tbaa !80
  %22 = load ptr, ptr %7, align 8, !tbaa !201
  %23 = getelementptr inbounds nuw %struct.sigalg_lookup_st, ptr %22, i32 0, i32 2
  %24 = load i32, ptr %23, align 4, !tbaa !204
  %25 = icmp ne i32 %24, 0
  br i1 %25, label %26, label %31

26:                                               ; preds = %4
  %27 = load ptr, ptr %7, align 8, !tbaa !201
  %28 = getelementptr inbounds nuw %struct.sigalg_lookup_st, ptr %27, i32 0, i32 2
  %29 = load i32, ptr %28, align 4, !tbaa !204
  %30 = call ptr @OBJ_nid2sn(i32 noundef %29)
  store ptr %30, ptr %15, align 8, !tbaa !172
  br label %31

31:                                               ; preds = %26, %4
  %32 = load ptr, ptr %9, align 8, !tbaa !202
  %33 = load ptr, ptr %16, align 8, !tbaa !80
  %34 = getelementptr inbounds nuw %struct.ssl_ctx_st, ptr %33, i32 0, i32 0
  %35 = load ptr, ptr %34, align 8, !tbaa !81
  %36 = load ptr, ptr %15, align 8, !tbaa !172
  %37 = load ptr, ptr %16, align 8, !tbaa !80
  %38 = getelementptr inbounds nuw %struct.ssl_ctx_st, ptr %37, i32 0, i32 89
  %39 = load ptr, ptr %38, align 8, !tbaa !210
  %40 = call i32 @EVP_PKEY_digestsign_supports_digest(ptr noundef %32, ptr noundef %35, ptr noundef %36, ptr noundef %39)
  store i32 %40, ptr %13, align 4, !tbaa !128
  %41 = load i32, ptr %13, align 4, !tbaa !128
  %42 = icmp sle i32 %41, 0
  br i1 %42, label %43, label %44

43:                                               ; preds = %31
  store i32 0, ptr %5, align 4
  store i32 1, ptr %17, align 4
  br label %98

44:                                               ; preds = %31
  %45 = load ptr, ptr %6, align 8, !tbaa !25
  %46 = getelementptr inbounds nuw %struct.ssl_connection_st, ptr %45, i32 0, i32 24
  %47 = getelementptr inbounds nuw %struct.anon, ptr %46, i32 0, i32 14
  %48 = getelementptr inbounds nuw %struct.anon.0, ptr %47, i32 0, i32 32
  %49 = load ptr, ptr %48, align 8, !tbaa !270
  %50 = icmp ne ptr %49, null
  br i1 %50, label %51, label %97

51:                                               ; preds = %44
  %52 = load ptr, ptr %8, align 8, !tbaa !334
  %53 = call i32 @X509_get_signature_info(ptr noundef %52, ptr noundef %11, ptr noundef %12, ptr noundef null, ptr noundef null)
  %54 = icmp ne i32 %53, 0
  br i1 %54, label %56, label %55

55:                                               ; preds = %51
  store i32 0, ptr %5, align 4
  store i32 1, ptr %17, align 4
  br label %98

56:                                               ; preds = %51
  store i64 0, ptr %14, align 8, !tbaa !3
  br label %57

57:                                               ; preds = %93, %56
  %58 = load i64, ptr %14, align 8, !tbaa !3
  %59 = load ptr, ptr %6, align 8, !tbaa !25
  %60 = getelementptr inbounds nuw %struct.ssl_connection_st, ptr %59, i32 0, i32 24
  %61 = getelementptr inbounds nuw %struct.anon, ptr %60, i32 0, i32 14
  %62 = getelementptr inbounds nuw %struct.anon.0, ptr %61, i32 0, i32 34
  %63 = load i64, ptr %62, align 8, !tbaa !351
  %64 = icmp ult i64 %58, %63
  br i1 %64, label %65, label %96

65:                                               ; preds = %57
  %66 = load ptr, ptr %6, align 8, !tbaa !25
  %67 = load ptr, ptr %6, align 8, !tbaa !25
  %68 = getelementptr inbounds nuw %struct.ssl_connection_st, ptr %67, i32 0, i32 24
  %69 = getelementptr inbounds nuw %struct.anon, ptr %68, i32 0, i32 14
  %70 = getelementptr inbounds nuw %struct.anon.0, ptr %69, i32 0, i32 32
  %71 = load ptr, ptr %70, align 8, !tbaa !270
  %72 = load i64, ptr %14, align 8, !tbaa !3
  %73 = getelementptr inbounds nuw i16, ptr %71, i64 %72
  %74 = load i16, ptr %73, align 2, !tbaa !100
  %75 = call ptr @tls1_lookup_sigalg(ptr noundef %66, i16 noundef zeroext %74)
  store ptr %75, ptr %10, align 8, !tbaa !201
  %76 = load ptr, ptr %10, align 8, !tbaa !201
  %77 = icmp eq ptr %76, null
  br i1 %77, label %78, label %79

78:                                               ; preds = %65
  br label %93

79:                                               ; preds = %65
  %80 = load i32, ptr %11, align 4, !tbaa !128
  %81 = load ptr, ptr %10, align 8, !tbaa !201
  %82 = getelementptr inbounds nuw %struct.sigalg_lookup_st, ptr %81, i32 0, i32 2
  %83 = load i32, ptr %82, align 4, !tbaa !204
  %84 = icmp eq i32 %80, %83
  br i1 %84, label %85, label %92

85:                                               ; preds = %79
  %86 = load i32, ptr %12, align 4, !tbaa !128
  %87 = load ptr, ptr %10, align 8, !tbaa !201
  %88 = getelementptr inbounds nuw %struct.sigalg_lookup_st, ptr %87, i32 0, i32 4
  %89 = load i32, ptr %88, align 4, !tbaa !209
  %90 = icmp eq i32 %86, %89
  br i1 %90, label %91, label %92

91:                                               ; preds = %85
  store i32 1, ptr %5, align 4
  store i32 1, ptr %17, align 4
  br label %98

92:                                               ; preds = %85, %79
  br label %93

93:                                               ; preds = %92, %78
  %94 = load i64, ptr %14, align 8, !tbaa !3
  %95 = add i64 %94, 1
  store i64 %95, ptr %14, align 8, !tbaa !3
  br label %57, !llvm.loop !407

96:                                               ; preds = %57
  store i32 0, ptr %5, align 4
  store i32 1, ptr %17, align 4
  br label %98

97:                                               ; preds = %44
  store i32 1, ptr %5, align 4
  store i32 1, ptr %17, align 4
  br label %98

98:                                               ; preds = %97, %96, %91, %55, %43
  call void @llvm.lifetime.end.p0(i64 8, ptr %16) #8
  call void @llvm.lifetime.end.p0(i64 8, ptr %15) #8
  call void @llvm.lifetime.end.p0(i64 8, ptr %14) #8
  call void @llvm.lifetime.end.p0(i64 4, ptr %13) #8
  call void @llvm.lifetime.end.p0(i64 4, ptr %12) #8
  call void @llvm.lifetime.end.p0(i64 4, ptr %11) #8
  call void @llvm.lifetime.end.p0(i64 8, ptr %10) #8
  %99 = load i32, ptr %5, align 4
  ret i32 %99
}