; Function Attrs: nounwind uwtable
define internal fastcc range(i32 0, 2) i32 @check_cert_usable(ptr noundef readonly captures(none) %0, i32 %.12.val, ptr noundef %1, ptr noundef %2) unnamed_addr #2 {
  %4 = alloca i32, align 4
  %5 = alloca i32, align 4
  call void @llvm.lifetime.start.p0(i64 4, ptr nonnull %4) #14
  call void @llvm.lifetime.start.p0(i64 4, ptr nonnull %5) #14
  %6 = getelementptr inbounds nuw i8, ptr %0, i64 8
  %7 = load ptr, ptr %6, align 8, !tbaa !126
  %.not = icmp eq i32 %.12.val, 0
  br i1 %.not, label %10, label %8

8:                                                ; preds = %3
  %9 = tail call ptr @OBJ_nid2sn(i32 noundef %.12.val) #14
  br label %10

10:                                               ; preds = %8, %3
  %.019 = phi ptr [ %9, %8 ], [ null, %3 ]
  %11 = load ptr, ptr %7, align 8, !tbaa !76
  %12 = getelementptr inbounds nuw i8, ptr %7, i64 1152
  %13 = load ptr, ptr %12, align 8, !tbaa !184
  %14 = tail call i32 @EVP_PKEY_digestsign_supports_digest(ptr noundef %2, ptr noundef %11, ptr noundef %.019, ptr noundef %13) #14
  %15 = icmp slt i32 %14, 1
  br i1 %15, label %.loopexit, label %16

16:                                               ; preds = %10
  %17 = getelementptr inbounds nuw i8, ptr %0, i64 1000
  %18 = load ptr, ptr %17, align 8, !tbaa !231
  %.not23 = icmp eq ptr %18, null
  br i1 %.not23, label %.loopexit, label %19

19:                                               ; preds = %16
  %20 = call i32 @X509_get_signature_info(ptr noundef %1, ptr noundef nonnull %4, ptr noundef nonnull %5, ptr noundef null, ptr noundef null) #14
  %.not24 = icmp eq i32 %20, 0
  br i1 %.not24, label %.loopexit, label %.preheader

.preheader:                                       ; preds = %19
  %21 = getelementptr inbounds nuw i8, ptr %0, i64 1016
  %22 = load i64, ptr %21, align 8, !tbaa !342
  %.not6 = icmp eq i64 %22, 0
  br i1 %.not6, label %.loopexit, label %.lr.ph

.lr.ph:                                           ; preds = %.preheader
  %23 = load ptr, ptr %17, align 8, !tbaa !231
  %.val = load ptr, ptr %6, align 8, !tbaa !126
  %24 = getelementptr inbounds nuw i8, ptr %.val, i64 1632
  %25 = load i64, ptr %24, align 8, !tbaa !194
  %.not4.i = icmp eq i64 %25, 0
  %26 = load i32, ptr %4, align 4
  %27 = load i32, ptr %5, align 4
  br i1 %.not4.i, label %.loopexit, label %.lr.ph.split

.lr.ph.split:                                     ; preds = %.lr.ph
  %28 = getelementptr inbounds nuw i8, ptr %.val, i64 1640
  %29 = load ptr, ptr %28, align 8, !tbaa !192
  br label %.lr.ph.preheader.i

.lr.ph.preheader.i:                               ; preds = %.lr.ph.split, %tls1_lookup_sigalg.exit.thread
  %.0203 = phi i64 [ 0, %.lr.ph.split ], [ %48, %tls1_lookup_sigalg.exit.thread ]
  %30 = getelementptr inbounds nuw i16, ptr %23, i64 %.0203
  %31 = load i16, ptr %30, align 2, !tbaa !93
  br label %.lr.ph.i

.lr.ph.i:                                         ; preds = %38, %.lr.ph.preheader.i
  %.03.i = phi ptr [ %39, %38 ], [ %29, %.lr.ph.preheader.i ]
  %.092.i = phi i64 [ %40, %38 ], [ 0, %.lr.ph.preheader.i ]
  %32 = getelementptr inbounds nuw i8, ptr %.03.i, i64 8
  %33 = load i16, ptr %32, align 8, !tbaa !187
  %34 = icmp eq i16 %33, %31
  br i1 %34, label %35, label %38

35:                                               ; preds = %.lr.ph.i
  %36 = getelementptr inbounds nuw i8, ptr %.03.i, i64 36
  %37 = load i32, ptr %36, align 4, !tbaa !182
  %.not.i = icmp eq i32 %37, 0
  br i1 %.not.i, label %tls1_lookup_sigalg.exit.thread, label %tls1_lookup_sigalg.exit

38:                                               ; preds = %.lr.ph.i
  %39 = getelementptr inbounds nuw i8, ptr %.03.i, i64 40
  %40 = add nuw i64 %.092.i, 1
  %exitcond.not.i = icmp eq i64 %40, %25
  br i1 %exitcond.not.i, label %tls1_lookup_sigalg.exit.thread, label %.lr.ph.i, !llvm.loop !206

tls1_lookup_sigalg.exit:                          ; preds = %35
  %41 = getelementptr inbounds nuw i8, ptr %.03.i, i64 12
  %42 = load i32, ptr %41, align 4, !tbaa !178
  %43 = icmp eq i32 %26, %42
  br i1 %43, label %44, label %tls1_lookup_sigalg.exit.thread

44:                                               ; preds = %tls1_lookup_sigalg.exit
  %45 = getelementptr inbounds nuw i8, ptr %.03.i, i64 20
  %46 = load i32, ptr %45, align 4, !tbaa !183
  %47 = icmp eq i32 %27, %46
  br i1 %47, label %.loopexit, label %tls1_lookup_sigalg.exit.thread

tls1_lookup_sigalg.exit.thread:                   ; preds = %38, %35, %tls1_lookup_sigalg.exit, %44
  %48 = add nuw i64 %.0203, 1
  %exitcond.not = icmp eq i64 %48, %22
  br i1 %exitcond.not, label %.loopexit, label %.lr.ph.preheader.i, !llvm.loop !343

.loopexit:                                        ; preds = %44, %tls1_lookup_sigalg.exit.thread, %.lr.ph, %.preheader, %16, %19, %10
  %.0 = phi i32 [ 0, %10 ], [ 0, %19 ], [ 1, %16 ], [ 0, %.preheader ], [ 0, %.lr.ph ], [ 1, %44 ], [ 0, %tls1_lookup_sigalg.exit.thread ]
  call void @llvm.lifetime.end.p0(i64 4, ptr nonnull %5) #14
  call void @llvm.lifetime.end.p0(i64 4, ptr nonnull %4) #14
  ret i32 %.0
}